target datalayout = "e-m:e-p270:32:32-p271:32:32-p272:64:64-i64:64-i128:128-f80:128-n8:16:32:64-S128"
target triple = "x86_64-pc-linux-gnu"

%struct.hwloc_xml_backend_data_s = type { ptr, ptr, ptr, ptr, ptr, ptr, ptr, ptr, ptr, ptr, ptr, i32, i32, i8, i8, i8, i8, i8, i8 }

@hwloc_libxml2_needs_cleanup = internal global i32 0, align 4

; Function Attrs: nounwind uwtable
define internal void @hwloc_libxml2_cleanup() #0 {
  %1 = load i32, ptr @hwloc_libxml2_needs_cleanup, align 4, !tbaa !12
  %2 = icmp ne i32 %1, 0
  br i1 %2, label %3, label %4

3:                                                ; preds = %0
  call void @xmlCleanupParser()
  br label %4

4:                                                ; preds = %3, %0
  ret void
}

; Function Attrs: nounwind uwtable
define internal void @hwloc_libxml_free_buffers(ptr noundef %0) #0 {
  %2 = alloca ptr, align 8
  store ptr %0, ptr %2, align 8, !tbaa !10
  %3 = load ptr, ptr %2, align 8, !tbaa !10
  %4 = getelementptr inbounds nuw %struct.hwloc_xml_backend_data_s, ptr %3, i32 0, i32 10
  %5 = load ptr, ptr %4, align 8, !tbaa !20
  %6 = icmp ne ptr %5, null
  br i1 %6, label %7, label %13

7:                                                ; preds = %1
  %8 = load ptr, ptr %2, align 8, !tbaa !10
  %9 = getelementptr inbounds nuw %struct.hwloc_xml_backend_data_s, ptr %8, i32 0, i32 10
  %10 = load ptr, ptr %9, align 8, !tbaa !20
  call void @xmlFreeDoc(ptr noundef %10)
  %11 = load ptr, ptr %2, align 8, !tbaa !10
  %12 = getelementptr inbounds nuw %struct.hwloc_xml_backend_data_s, ptr %11, i32 0, i32 10
  store ptr null, ptr %12, align 8, !tbaa !20
  br label %13

13:                                               ; preds = %7, %1
  ret void
}

; Function Attrs: nounwind uwtable
define internal void @hwloc_libxml_backend_exit(ptr noundef %0) #0 {
  %2 = alloca ptr, align 8
  store ptr %0, ptr %2, align 8, !tbaa !10
  %3 = load ptr, ptr %2, align 8, !tbaa !10
  call void @hwloc_libxml_free_buffers(ptr noundef %3)
  call void @hwloc_libxml2_cleanup()
  ret void
}