; Function Attrs: nounwind uwtable
define internal void @hwloc_libxml_backend_exit(ptr noundef captures(none) %0) #1 {
  %2 = getelementptr inbounds nuw i8, ptr %0, i64 80
  %3 = load ptr, ptr %2, align 8, !tbaa !14
  %.not.i = icmp eq ptr %3, null
  br i1 %.not.i, label %hwloc_libxml_free_buffers.exit, label %4

4:                                                ; preds = %1
  tail call void @xmlFreeDoc(ptr noundef nonnull %3) #11
  store ptr null, ptr %2, align 8, !tbaa !14
  br label %hwloc_libxml_free_buffers.exit

hwloc_libxml_free_buffers.exit:                   ; preds = %1, %4
  %.b.i = load i1, ptr @hwloc_libxml2_needs_cleanup, align 4
  br i1 %.b.i, label %5, label %hwloc_libxml2_cleanup.exit

5:                                                ; preds = %hwloc_libxml_free_buffers.exit
  tail call void @xmlCleanupParser() #11
  br label %hwloc_libxml2_cleanup.exit

hwloc_libxml2_cleanup.exit:                       ; preds = %hwloc_libxml_free_buffers.exit, %5
  ret void
}